target datalayout = "e-m:e-p270:32:32-p271:32:32-p272:64:64-i64:64-i128:128-f80:128-n8:16:32:64-S128"
target triple = "x86_64-pc-linux-gnu"

%struct.Aig_Obj_t_ = type { %union.anon, ptr, ptr, i64, i32, i32, %union.anon.0 }
%union.anon = type { ptr }
%union.anon.0 = type { ptr }

; Function Attrs: inlinehint nounwind uwtable
define internal i32 @Aig_IsComplement(ptr noundef %0) #4 {
  %2 = alloca ptr, align 8
  store ptr %0, ptr %2, align 8, !tbaa !24
  %3 = load ptr, ptr %2, align 8, !tbaa !24
  %4 = ptrtoint ptr %3 to i64
  %5 = and i64 %4, 1
  %6 = trunc i64 %5 to i32
  ret i32 %6
}

; Function Attrs: inlinehint nounwind uwtable
define internal ptr @Aig_Regular(ptr noundef %0) #4 {
  %2 = alloca ptr, align 8
  store ptr %0, ptr %2, align 8, !tbaa !24
  %3 = load ptr, ptr %2, align 8, !tbaa !24
  %4 = ptrtoint ptr %3 to i64
  %5 = and i64 %4, -2
  %6 = inttoptr i64 %5 to ptr
  ret ptr %6
}

; Function Attrs: inlinehint nounwind uwtable
define internal i32 @Aig_ObjFaninC0(ptr noundef %0) #4 {
  %2 = alloca ptr, align 8
  store ptr %0, ptr %2, align 8, !tbaa !24
  %3 = load ptr, ptr %2, align 8, !tbaa !24
  %4 = getelementptr inbounds nuw %struct.Aig_Obj_t_, ptr %3, i32 0, i32 1
  %5 = load ptr, ptr %4, align 8, !tbaa !37
  %6 = call i32 @Aig_IsComplement(ptr noundef %5)
  ret i32 %6
}

; Function Attrs: inlinehint nounwind uwtable
define internal ptr @Aig_ObjChild1(ptr noundef %0) #4 {
  %2 = alloca ptr, align 8
  store ptr %0, ptr %2, align 8, !tbaa !24
  %3 = load ptr, ptr %2, align 8, !tbaa !24
  %4 = getelementptr inbounds nuw %struct.Aig_Obj_t_, ptr %3, i32 0, i32 2
  %5 = load ptr, ptr %4, align 8, !tbaa !40
  ret ptr %5
}

; Function Attrs: inlinehint nounwind uwtable
define internal ptr @Aig_Not(ptr noundef %0) #4 {
  %2 = alloca ptr, align 8
  store ptr %0, ptr %2, align 8, !tbaa !24
  %3 = load ptr, ptr %2, align 8, !tbaa !24
  %4 = ptrtoint ptr %3 to i64
  %5 = xor i64 %4, 1
  %6 = inttoptr i64 %5 to ptr
  ret ptr %6
}

; Function Attrs: inlinehint nounwind uwtable
define internal ptr @Aig_ObjChild0(ptr noundef %0) #4 {
  %2 = alloca ptr, align 8
  store ptr %0, ptr %2, align 8, !tbaa !24
  %3 = load ptr, ptr %2, align 8, !tbaa !24
  %4 = getelementptr inbounds nuw %struct.Aig_Obj_t_, ptr %3, i32 0, i32 1
  %5 = load ptr, ptr %4, align 8, !tbaa !37
  ret ptr %5
}

; Function Attrs: inlinehint nounwind uwtable
define internal i32 @Aig_ObjFaninC1(ptr noundef %0) #4 {
  %2 = alloca ptr, align 8
  store ptr %0, ptr %2, align 8, !tbaa !24
  %3 = load ptr, ptr %2, align 8, !tbaa !24
  %4 = getelementptr inbounds nuw %struct.Aig_Obj_t_, ptr %3, i32 0, i32 2
  %5 = load ptr, ptr %4, align 8, !tbaa !40
  %6 = call i32 @Aig_IsComplement(ptr noundef %5)
  ret i32 %6
}

; Function Attrs: inlinehint nounwind uwtable
define internal ptr @Aig_ObjFanin1(ptr noundef %0) #4 {
  %2 = alloca ptr, align 8
  store ptr %0, ptr %2, align 8, !tbaa !24
  %3 = load ptr, ptr %2, align 8, !tbaa !24
  %4 = getelementptr inbounds nuw %struct.Aig_Obj_t_, ptr %3, i32 0, i32 2
  %5 = load ptr, ptr %4, align 8, !tbaa !40
  %6 = call ptr @Aig_Regular(ptr noundef %5)
  ret ptr %6
}

; Function Attrs: inlinehint nounwind uwtable
define internal ptr @Aig_ObjFanin0(ptr noundef %0) #4 {
  %2 = alloca ptr, align 8
  store ptr %0, ptr %2, align 8, !tbaa !24
  %3 = load ptr, ptr %2, align 8, !tbaa !24
  %4 = getelementptr inbounds nuw %struct.Aig_Obj_t_, ptr %3, i32 0, i32 1
  %5 = load ptr, ptr %4, align 8, !tbaa !37
  %6 = call ptr @Aig_Regular(ptr noundef %5)
  ret ptr %6
}

; Function Attrs: nounwind uwtable
define ptr @Aig_ObjRecognizeMux(ptr noundef %0, ptr noundef %1, ptr noundef %2) #0 {
  %4 = alloca ptr, align 8
  %5 = alloca ptr, align 8
  %6 = alloca ptr, align 8
  %7 = alloca ptr, align 8
  %8 = alloca ptr, align 8
  %9 = alloca ptr, align 8
  %10 = alloca i32, align 4
  store ptr %0, ptr %5, align 8, !tbaa !24
  store ptr %1, ptr %6, align 8, !tbaa !46
  store ptr %2, ptr %7, align 8, !tbaa !46
  call void @llvm.lifetime.start.p0(i64 8, ptr %8) #10
  call void @llvm.lifetime.start.p0(i64 8, ptr %9) #10
  %11 = load ptr, ptr %5, align 8, !tbaa !24
  %12 = call ptr @Aig_ObjFanin0(ptr noundef %11)
  store ptr %12, ptr %8, align 8, !tbaa !24
  %13 = load ptr, ptr %5, align 8, !tbaa !24
  %14 = call ptr @Aig_ObjFanin1(ptr noundef %13)
  store ptr %14, ptr %9, align 8, !tbaa !24
  %15 = load ptr, ptr %8, align 8, !tbaa !24
  %16 = call ptr @Aig_ObjFanin1(ptr noundef %15)
  %17 = load ptr, ptr %9, align 8, !tbaa !24
  %18 = call ptr @Aig_ObjFanin1(ptr noundef %17)
  %19 = icmp eq ptr %16, %18
  br i1 %19, label %20, label %53

20:                                               ; preds = %3
  %21 = load ptr, ptr %8, align 8, !tbaa !24
  %22 = call i32 @Aig_ObjFaninC1(ptr noundef %21)
  %23 = load ptr, ptr %9, align 8, !tbaa !24
  %24 = call i32 @Aig_ObjFaninC1(ptr noundef %23)
  %25 = xor i32 %22, %24
  %26 = icmp ne i32 %25, 0
  br i1 %26, label %27, label %53

27:                                               ; preds = %20
  %28 = load ptr, ptr %8, align 8, !tbaa !24
  %29 = call i32 @Aig_ObjFaninC1(ptr noundef %28)
  %30 = icmp ne i32 %29, 0
  br i1 %30, label %31, label %42

31:                                               ; preds = %27
  %32 = load ptr, ptr %9, align 8, !tbaa !24
  %33 = call ptr @Aig_ObjChild0(ptr noundef %32)
  %34 = call ptr @Aig_Not(ptr noundef %33)
  %35 = load ptr, ptr %6, align 8, !tbaa !46
  store ptr %34, ptr %35, align 8, !tbaa !24
  %36 = load ptr, ptr %8, align 8, !tbaa !24
  %37 = call ptr @Aig_ObjChild0(ptr noundef %36)
  %38 = call ptr @Aig_Not(ptr noundef %37)
  %39 = load ptr, ptr %7, align 8, !tbaa !46
  store ptr %38, ptr %39, align 8, !tbaa !24
  %40 = load ptr, ptr %9, align 8, !tbaa !24
  %41 = call ptr @Aig_ObjChild1(ptr noundef %40)
  store ptr %41, ptr %4, align 8
  store i32 1, ptr %10, align 4
  br label %174

42:                                               ; preds = %27
  %43 = load ptr, ptr %8, align 8, !tbaa !24
  %44 = call ptr @Aig_ObjChild0(ptr noundef %43)
  %45 = call ptr @Aig_Not(ptr noundef %44)
  %46 = load ptr, ptr %6, align 8, !tbaa !46
  store ptr %45, ptr %46, align 8, !tbaa !24
  %47 = load ptr, ptr %9, align 8, !tbaa !24
  %48 = call ptr @Aig_ObjChild0(ptr noundef %47)
  %49 = call ptr @Aig_Not(ptr noundef %48)
  %50 = load ptr, ptr %7, align 8, !tbaa !46
  store ptr %49, ptr %50, align 8, !tbaa !24
  %51 = load ptr, ptr %8, align 8, !tbaa !24
  %52 = call ptr @Aig_ObjChild1(ptr noundef %51)
  store ptr %52, ptr %4, align 8
  store i32 1, ptr %10, align 4
  br label %174

53:                                               ; preds = %20, %3
  %54 = load ptr, ptr %8, align 8, !tbaa !24
  %55 = call ptr @Aig_ObjFanin0(ptr noundef %54)
  %56 = load ptr, ptr %9, align 8, !tbaa !24
  %57 = call ptr @Aig_ObjFanin0(ptr noundef %56)
  %58 = icmp eq ptr %55, %57
  br i1 %58, label %59, label %92

59:                                               ; preds = %53
  %60 = load ptr, ptr %8, align 8, !tbaa !24
  %61 = call i32 @Aig_ObjFaninC0(ptr noundef %60)
  %62 = load ptr, ptr %9, align 8, !tbaa !24
  %63 = call i32 @Aig_ObjFaninC0(ptr noundef %62)
  %64 = xor i32 %61, %63
  %65 = icmp ne i32 %64, 0
  br i1 %65, label %66, label %92

66:                                               ; preds = %59
  %67 = load ptr, ptr %8, align 8, !tbaa !24
  %68 = call i32 @Aig_ObjFaninC0(ptr noundef %67)
  %69 = icmp ne i32 %68, 0
  br i1 %69, label %70, label %81

70:                                               ; preds = %66
  %71 = load ptr, ptr %9, align 8, !tbaa !24
  %72 = call ptr @Aig_ObjChild1(ptr noundef %71)
  %73 = call ptr @Aig_Not(ptr noundef %72)
  %74 = load ptr, ptr %6, align 8, !tbaa !46
  store ptr %73, ptr %74, align 8, !tbaa !24
  %75 = load ptr, ptr %8, align 8, !tbaa !24
  %76 = call ptr @Aig_ObjChild1(ptr noundef %75)
  %77 = call ptr @Aig_Not(ptr noundef %76)
  %78 = load ptr, ptr %7, align 8, !tbaa !46
  store ptr %77, ptr %78, align 8, !tbaa !24
  %79 = load ptr, ptr %9, align 8, !tbaa !24
  %80 = call ptr @Aig_ObjChild0(ptr noundef %79)
  store ptr %80, ptr %4, align 8
  store i32 1, ptr %10, align 4
  br label %174

81:                                               ; preds = %66
  %82 = load ptr, ptr %8, align 8, !tbaa !24
  %83 = call ptr @Aig_ObjChild1(ptr noundef %82)
  %84 = call ptr @Aig_Not(ptr noundef %83)
  %85 = load ptr, ptr %6, align 8, !tbaa !46
  store ptr %84, ptr %85, align 8, !tbaa !24
  %86 = load ptr, ptr %9, align 8, !tbaa !24
  %87 = call ptr @Aig_ObjChild1(ptr noundef %86)
  %88 = call ptr @Aig_Not(ptr noundef %87)
  %89 = load ptr, ptr %7, align 8, !tbaa !46
  store ptr %88, ptr %89, align 8, !tbaa !24
  %90 = load ptr, ptr %8, align 8, !tbaa !24
  %91 = call ptr @Aig_ObjChild0(ptr noundef %90)
  store ptr %91, ptr %4, align 8
  store i32 1, ptr %10, align 4
  br label %174

92:                                               ; preds = %59, %53
  %93 = load ptr, ptr %8, align 8, !tbaa !24
  %94 = call ptr @Aig_ObjFanin0(ptr noundef %93)
  %95 = load ptr, ptr %9, align 8, !tbaa !24
  %96 = call ptr @Aig_ObjFanin1(ptr noundef %95)
  %97 = icmp eq ptr %94, %96
  br i1 %97, label %98, label %131

98:                                               ; preds = %92
  %99 = load ptr, ptr %8, align 8, !tbaa !24
  %100 = call i32 @Aig_ObjFaninC0(ptr noundef %99)
  %101 = load ptr, ptr %9, align 8, !tbaa !24
  %102 = call i32 @Aig_ObjFaninC1(ptr noundef %101)
  %103 = xor i32 %100, %102
  %104 = icmp ne i32 %103, 0
  br i1 %104, label %105, label %131

105:                                              ; preds = %98
  %106 = load ptr, ptr %8, align 8, !tbaa !24
  %107 = call i32 @Aig_ObjFaninC0(ptr noundef %106)
  %108 = icmp ne i32 %107, 0
  br i1 %108, label %109, label %120

109:                                              ; preds = %105
  %110 = load ptr, ptr %9, align 8, !tbaa !24
  %111 = call ptr @Aig_ObjChild0(ptr noundef %110)
  %112 = call ptr @Aig_Not(ptr noundef %111)
  %113 = load ptr, ptr %6, align 8, !tbaa !46
  store ptr %112, ptr %113, align 8, !tbaa !24
  %114 = load ptr, ptr %8, align 8, !tbaa !24
  %115 = call ptr @Aig_ObjChild1(ptr noundef %114)
  %116 = call ptr @Aig_Not(ptr noundef %115)
  %117 = load ptr, ptr %7, align 8, !tbaa !46
  store ptr %116, ptr %117, align 8, !tbaa !24
  %118 = load ptr, ptr %9, align 8, !tbaa !24
  %119 = call ptr @Aig_ObjChild1(ptr noundef %118)
  store ptr %119, ptr %4, align 8
  store i32 1, ptr %10, align 4
  br label %174

120:                                              ; preds = %105
  %121 = load ptr, ptr %8, align 8, !tbaa !24
  %122 = call ptr @Aig_ObjChild1(ptr noundef %121)
  %123 = call ptr @Aig_Not(ptr noundef %122)
  %124 = load ptr, ptr %6, align 8, !tbaa !46
  store ptr %123, ptr %124, align 8, !tbaa !24
  %125 = load ptr, ptr %9, align 8, !tbaa !24
  %126 = call ptr @Aig_ObjChild0(ptr noundef %125)
  %127 = call ptr @Aig_Not(ptr noundef %126)
  %128 = load ptr, ptr %7, align 8, !tbaa !46
  store ptr %127, ptr %128, align 8, !tbaa !24
  %129 = load ptr, ptr %8, align 8, !tbaa !24
  %130 = call ptr @Aig_ObjChild0(ptr noundef %129)
  store ptr %130, ptr %4, align 8
  store i32 1, ptr %10, align 4
  br label %174

131:                                              ; preds = %98, %92
  %132 = load ptr, ptr %8, align 8, !tbaa !24
  %133 = call ptr @Aig_ObjFanin1(ptr noundef %132)
  %134 = load ptr, ptr %9, align 8, !tbaa !24
  %135 = call ptr @Aig_ObjFanin0(ptr noundef %134)
  %136 = icmp eq ptr %133, %135
  br i1 %136, label %137, label %170

137:                                              ; preds = %131
  %138 = load ptr, ptr %8, align 8, !tbaa !24
  %139 = call i32 @Aig_ObjFaninC1(ptr noundef %138)
  %140 = load ptr, ptr %9, align 8, !tbaa !24
  %141 = call i32 @Aig_ObjFaninC0(ptr noundef %140)
  %142 = xor i32 %139, %141
  %143 = icmp ne i32 %142, 0
  br i1 %143, label %144, label %170

144:                                              ; preds = %137
  %145 = load ptr, ptr %8, align 8, !tbaa !24
  %146 = call i32 @Aig_ObjFaninC1(ptr noundef %145)
  %147 = icmp ne i32 %146, 0
  br i1 %147, label %148, label %159

148:                                              ; preds = %144
  %149 = load ptr, ptr %9, align 8, !tbaa !24
  %150 = call ptr @Aig_ObjChild1(ptr noundef %149)
  %151 = call ptr @Aig_Not(ptr noundef %150)
  %152 = load ptr, ptr %6, align 8, !tbaa !46
  store ptr %151, ptr %152, align 8, !tbaa !24
  %153 = load ptr, ptr %8, align 8, !tbaa !24
  %154 = call ptr @Aig_ObjChild0(ptr noundef %153)
  %155 = call ptr @Aig_Not(ptr noundef %154)
  %156 = load ptr, ptr %7, align 8, !tbaa !46
  store ptr %155, ptr %156, align 8, !tbaa !24
  %157 = load ptr, ptr %9, align 8, !tbaa !24
  %158 = call ptr @Aig_ObjChild0(ptr noundef %157)
  store ptr %158, ptr %4, align 8
  store i32 1, ptr %10, align 4
  br label %174

159:                                              ; preds = %144
  %160 = load ptr, ptr %8, align 8, !tbaa !24
  %161 = call ptr @Aig_ObjChild0(ptr noundef %160)
  %162 = call ptr @Aig_Not(ptr noundef %161)
  %163 = load ptr, ptr %6, align 8, !tbaa !46
  store ptr %162, ptr %163, align 8, !tbaa !24
  %164 = load ptr, ptr %9, align 8, !tbaa !24
  %165 = call ptr @Aig_ObjChild1(ptr noundef %164)
  %166 = call ptr @Aig_Not(ptr noundef %165)
  %167 = load ptr, ptr %7, align 8, !tbaa !46
  store ptr %166, ptr %167, align 8, !tbaa !24
  %168 = load ptr, ptr %8, align 8, !tbaa !24
  %169 = call ptr @Aig_ObjChild1(ptr noundef %168)
  store ptr %169, ptr %4, align 8
  store i32 1, ptr %10, align 4
  br label %174

170:                                              ; preds = %137, %131
  br label %171

171:                                              ; preds = %170
  br label %172

172:                                              ; preds = %171
  br label %173

173:                                              ; preds = %172
  store ptr null, ptr %4, align 8
  store i32 1, ptr %10, align 4
  br label %174

174:                                              ; preds = %173, %159, %148, %120, %109, %81, %70, %42, %31
  call void @llvm.lifetime.end.p0(i64 8, ptr %9) #10
  call void @llvm.lifetime.end.p0(i64 8, ptr %8) #10
  %175 = load ptr, ptr %4, align 8
  ret ptr %175
}